; Function Attrs: mustprogress nofree norecurse nounwind memory(read, argmem: readwrite, inaccessiblemem: none) uwtable
define void @_ZN7rocksdb13HistogramStatC2Ev(ptr noundef nonnull align 8 captures(none) dereferenceable(920) initializes((912, 920)) %0) unnamed_addr #5 align 2 {
  %2 = getelementptr inbounds nuw i8, ptr %0, i64 912
  %3 = load ptr, ptr getelementptr inbounds nuw (i8, ptr @_ZN7rocksdb12_GLOBAL__N_112bucketMapperE, i64 8), align 8, !tbaa !10
  %4 = load ptr, ptr @_ZN7rocksdb12_GLOBAL__N_112bucketMapperE, align 8, !tbaa !4
  %5 = ptrtoint ptr %3 to i64
  %6 = ptrtoint ptr %4 to i64
  %7 = sub i64 %5, %6
  %8 = ashr exact i64 %7, 3
  store i64 %8, ptr %2, align 8, !tbaa !25
  %9 = load i64, ptr getelementptr inbounds nuw (i8, ptr @_ZN7rocksdb12_GLOBAL__N_112bucketMapperE, i64 24), align 8, !tbaa !18
  store atomic i64 %9, ptr %0 monotonic, align 8
  %10 = getelementptr inbounds nuw i8, ptr %0, i64 8
  store atomic i64 0, ptr %10 monotonic, align 8
  %11 = getelementptr inbounds nuw i8, ptr %0, i64 16
  store atomic i64 0, ptr %11 monotonic, align 8
  %12 = getelementptr inbounds nuw i8, ptr %0, i64 24
  store atomic i64 0, ptr %12 monotonic, align 8
  %13 = getelementptr inbounds nuw i8, ptr %0, i64 32
  store atomic i64 0, ptr %13 monotonic, align 8
  %.not.i = icmp eq ptr %3, %4
  br i1 %.not.i, label %_ZN7rocksdb13HistogramStat5ClearEv.exit, label %.lr.ph.i

.lr.ph.i:                                         ; preds = %1
  %14 = getelementptr inbounds nuw i8, ptr %0, i64 40
  br label %15

15:                                               ; preds = %15, %.lr.ph.i
  %16 = phi i64 [ 0, %.lr.ph.i ], [ %19, %15 ]
  %.04.i = phi i32 [ 0, %.lr.ph.i ], [ %18, %15 ]
  %17 = getelementptr inbounds nuw [109 x %"struct.std::atomic"], ptr %14, i64 0, i64 %16
  store atomic i64 0, ptr %17 monotonic, align 8
  %18 = add i32 %.04.i, 1
  %19 = zext i32 %18 to i64
  %20 = load i64, ptr %2, align 8, !tbaa !25
  %21 = icmp ugt i64 %20, %19
  br i1 %21, label %15, label %_ZN7rocksdb13HistogramStat5ClearEv.exit, !llvm.loop !29

_ZN7rocksdb13HistogramStat5ClearEv.exit:          ; preds = %15, %1
  ret void
}